target datalayout = "e-m:e-p270:32:32-p271:32:32-p272:64:64-i64:64-i128:128-f80:128-n8:16:32:64-S128"
target triple = "x86_64-pc-linux-gnu"

%class.QString = type { %struct.QArrayDataPointer }
%struct.QArrayDataPointer = type { ptr, ptr, i64 }
%struct._address = type { i32, i32, ptr, ptr }
%class.Iax2AnalysisDialog = type { %class.WiresharkDialog.base, ptr, %struct._rtpstream_id, %struct._rtpstream_id, %struct._tap_iax2_stat_t, %struct._tap_iax2_stat_t, ptr, ptr, %class.QList.1, %class.QList.5, %class.QList.5, %class.QList.5, %class.QList.5, %class.QList.5, %class.QList.5, %class.QString, i32, %class.QMenu, %class.QMenu }
%class.WiresharkDialog.base = type <{ %class.GeometryStateDialog, ptr, i8, [7 x i8], %class.QString, %class.QList, i32, i8 }>
%class.GeometryStateDialog = type { %class.QDialog, %class.QString, ptr }
%class.QDialog = type { %class.QWidget }
%class.QWidget = type { %class.QObject, %class.QPaintDevice.base, ptr }
%class.QObject = type { ptr, %class.QScopedPointer }
%class.QScopedPointer = type { ptr }
%class.QPaintDevice.base = type <{ ptr, i16 }>
%class.QList = type { %struct.QArrayDataPointer.0 }
%struct.QArrayDataPointer.0 = type { ptr, ptr, i64 }
%struct._rtpstream_id = type { %struct._address, i16, %struct._address, i16, i32 }
%struct._tap_iax2_stat_t = type { i8, i32, i16, i32, i32, double, [300 x %struct._iax2_bw_history_item], i16, i16, i32, double, double, double, double, double, double, double, double, i32, i16, i16, i32, i32, i8, i32, i16, i32 }
%struct._iax2_bw_history_item = type { double, i32 }
%class.QList.1 = type { %struct.QArrayDataPointer.4 }
%struct.QArrayDataPointer.4 = type { ptr, ptr, i64 }
%class.QList.5 = type { %struct.QArrayDataPointer.8 }
%struct.QArrayDataPointer.8 = type { ptr, ptr, i64 }
%class.QMenu = type { %class.QWidget }
%class.Ui_Iax2AnalysisDialog = type { ptr, ptr, ptr, ptr, ptr, ptr, ptr, ptr, ptr, ptr, ptr, ptr, ptr, ptr, ptr, ptr, ptr, ptr, ptr, ptr, ptr, ptr, ptr, ptr, ptr, ptr, ptr, ptr, ptr, ptr, ptr, ptr, ptr, ptr }
%class.QPoint = type { i32, i32 }

; Function Attrs: mustprogress null_pointer_is_valid sspstrong uwtable
define void @_ZN18Iax2AnalysisDialog13showGraphMenuERK6QPoint(ptr noundef align 8 dereferenceable_or_null(10448) %0, ptr noundef align 4 dereferenceable(8) %1) #0 align 2 {
  %3 = alloca ptr, align 8
  %4 = alloca ptr, align 8
  %5 = alloca %class.QPoint, align 4
  store ptr %0, ptr %3, align 8
  store ptr %1, ptr %4, align 8
  %6 = load ptr, ptr %3, align 8
  %7 = getelementptr inbounds nuw %class.Iax2AnalysisDialog, ptr %6, i32 0, i32 18
  call void @llvm.lifetime.start.p0(i64 8, ptr %5) #24
  %8 = getelementptr inbounds nuw %class.Iax2AnalysisDialog, ptr %6, i32 0, i32 1
  %9 = load ptr, ptr %8, align 8
  %10 = getelementptr inbounds nuw %class.Ui_Iax2AnalysisDialog, ptr %9, i32 0, i32 19
  %11 = load ptr, ptr %10, align 8
  %12 = load ptr, ptr %4, align 8
  %13 = call i64 @_ZNK7QWidget11mapToGlobalERK6QPoint(ptr noundef align 8 dereferenceable_or_null(40) %11, ptr noundef align 4 dereferenceable(8) %12)
  store i64 %13, ptr %5, align 4
  call void @_ZN5QMenu5popupERK6QPointP7QAction(ptr noundef align 8 dereferenceable_or_null(40) %7, ptr noundef align 4 dereferenceable(8) %5, ptr noundef null)
  call void @llvm.lifetime.end.p0(i64 8, ptr %5) #24
  ret void
}